; Function Attrs: mustprogress nofree norecurse nosync nounwind willreturn memory(readwrite, inaccessiblemem: none) uwtable
define hidden void @_ZN9Assembler10evpblendmwE11XMMRegister9KRegisterS0_S0_bi(ptr noundef nonnull align 8 dereferenceable(40) %0, i32 %1, i32 %2, i32 %3, i32 %4, i1 noundef zeroext %5, i32 noundef %6) local_unnamed_addr #8 align 2 {
  %8 = alloca %class.InstructionAttr, align 8
  %9 = getelementptr inbounds i8, ptr %0, i64 24
  %10 = load i8, ptr %9, align 8
  %11 = trunc i8 %10 to i1
  store i8 1, ptr %8, align 8
  %12 = getelementptr inbounds i8, ptr %8, i64 1
  %13 = load i32, ptr @UseAVX, align 4
  %14 = icmp slt i32 %13, 3
  %15 = select i1 %11, i1 true, i1 %14
  %16 = zext i1 %15 to i8
  store i8 %16, ptr %12, align 1
  %17 = getelementptr inbounds i8, ptr %8, i64 2
  store i8 0, ptr %17, align 2
  %18 = getelementptr inbounds i8, ptr %8, i64 3
  store i8 1, ptr %18, align 1
  %19 = getelementptr inbounds i8, ptr %8, i64 4
  store i8 0, ptr %19, align 4
  %20 = getelementptr inbounds i8, ptr %8, i64 5
  %21 = getelementptr inbounds i8, ptr %8, i64 6
  store i8 1, ptr %21, align 2
  %22 = getelementptr inbounds i8, ptr %8, i64 7
  store i8 0, ptr %22, align 1
  %23 = getelementptr inbounds i8, ptr %8, i64 8
  store i32 %6, ptr %23, align 8
  %24 = getelementptr inbounds i8, ptr %8, i64 12
  store i32 24, ptr %24, align 4
  %25 = getelementptr inbounds i8, ptr %8, i64 16
  store i32 4, ptr %25, align 8
  %26 = getelementptr inbounds i8, ptr %8, i64 20
  store i32 0, ptr %26, align 4
  %27 = getelementptr inbounds i8, ptr %8, i64 24
  %28 = getelementptr inbounds i8, ptr %8, i64 32
  store ptr null, ptr %28, align 8
  store i8 1, ptr %20, align 1
  %29 = sext i32 %2 to i64
  %30 = getelementptr inbounds %"class.KRegister::KRegisterImpl", ptr getelementptr inbounds (i8, ptr @all_KRegisterImpls, i64 1), i64 %29
  %31 = ptrtoint ptr %30 to i64
  %32 = trunc i64 %31 to i32
  %33 = sub i32 %32, ptrtoint (ptr getelementptr inbounds (i8, ptr @all_KRegisterImpls, i64 1) to i32)
  %34 = and i32 %33, 7
  store i32 %34, ptr %27, align 8
  br i1 %5, label %35, label %36

35:                                               ; preds = %7
  store i8 0, ptr %21, align 2
  br label %36

36:                                               ; preds = %35, %7
  %37 = sext i32 %1 to i64
  %38 = getelementptr inbounds %"class.XMMRegister::XMMRegisterImpl", ptr getelementptr inbounds (i8, ptr @all_XMMRegisterImpls, i64 1), i64 %37
  %39 = ptrtoint ptr %38 to i64
  %40 = trunc i64 %39 to i32
  %41 = sub i32 %40, ptrtoint (ptr getelementptr inbounds (i8, ptr @all_XMMRegisterImpls, i64 1) to i32)
  %42 = sext i32 %3 to i64
  %43 = getelementptr inbounds %"class.XMMRegister::XMMRegisterImpl", ptr getelementptr inbounds (i8, ptr @all_XMMRegisterImpls, i64 1), i64 %42
  %44 = ptrtoint ptr %43 to i64
  %45 = trunc i64 %44 to i32
  %46 = sub i32 %45, ptrtoint (ptr getelementptr inbounds (i8, ptr @all_XMMRegisterImpls, i64 1) to i32)
  %47 = sext i32 %4 to i64
  %48 = getelementptr inbounds %"class.XMMRegister::XMMRegisterImpl", ptr getelementptr inbounds (i8, ptr @all_XMMRegisterImpls, i64 1), i64 %47
  %49 = ptrtoint ptr %48 to i64
  %50 = trunc i64 %49 to i32
  %51 = sub i32 %50, ptrtoint (ptr getelementptr inbounds (i8, ptr @all_XMMRegisterImpls, i64 1) to i32)
  %52 = call noundef i32 @_ZN9Assembler21vex_prefix_and_encodeEiiiNS_13VexSimdPrefixENS_9VexOpcodeEP15InstructionAttrb(ptr noundef nonnull align 8 dereferenceable(40) %0, i32 noundef %41, i32 noundef %46, i32 noundef %51, i32 noundef 1, i32 noundef 2, ptr noundef nonnull %8, i1 noundef zeroext false)
  %53 = getelementptr inbounds i8, ptr %0, i64 8
  %54 = load ptr, ptr %53, align 8
  %55 = trunc nuw nsw i32 %52 to i8
  %.0.i2.i = or disjoint i8 %55, -64
  %56 = getelementptr inbounds i8, ptr %54, i64 16
  %57 = load ptr, ptr %56, align 8
  %58 = getelementptr inbounds i8, ptr %57, i64 1
  store i8 102, ptr %57, align 1
  %59 = getelementptr inbounds i8, ptr %57, i64 2
  store i8 %.0.i2.i, ptr %58, align 1
  store ptr %59, ptr %56, align 8
  %60 = load ptr, ptr %28, align 8
  %.not.i = icmp eq ptr %60, null
  br i1 %.not.i, label %_ZN15InstructionAttrD2Ev.exit, label %61

61:                                               ; preds = %36
  %62 = getelementptr inbounds i8, ptr %60, i64 32
  store ptr null, ptr %62, align 8
  br label %_ZN15InstructionAttrD2Ev.exit

_ZN15InstructionAttrD2Ev.exit:                    ; preds = %36, %61
  ret void
}